target datalayout = "e-m:e-p270:32:32-p271:32:32-p272:64:64-i64:64-i128:128-f80:128-n8:16:32:64-S128"
target triple = "x86_64-pc-linux-gnu"

%union.anon.3 = type { i64, [24 x i8] }

; Function Attrs: nounwind uwtable
define i64 @CRYPTO_cts128_decrypt(ptr noundef %0, ptr noundef %1, i64 noundef %2, ptr noundef %3, ptr noundef %4, ptr noundef %5) #0 {
  %7 = alloca i64, align 8
  %8 = alloca ptr, align 8
  %9 = alloca ptr, align 8
  %10 = alloca i64, align 8
  %11 = alloca ptr, align 8
  %12 = alloca ptr, align 8
  %13 = alloca ptr, align 8
  %14 = alloca i64, align 8
  %15 = alloca %union.anon.3, align 8
  %16 = alloca i32, align 4
  store ptr %0, ptr %8, align 8, !tbaa !3
  store ptr %1, ptr %9, align 8, !tbaa !3
  store i64 %2, ptr %10, align 8, !tbaa !8
  store ptr %3, ptr %11, align 8, !tbaa !10
  store ptr %4, ptr %12, align 8, !tbaa !3
  store ptr %5, ptr %13, align 8, !tbaa !10
  call void @llvm.lifetime.start.p0(i64 8, ptr %14) #5
  call void @llvm.lifetime.start.p0(i64 32, ptr %15) #5
  %17 = load i64, ptr %10, align 8, !tbaa !8
  %18 = icmp ule i64 %17, 16
  br i1 %18, label %19, label %20

19:                                               ; preds = %6
  store i64 0, ptr %7, align 8
  store i32 1, ptr %16, align 4
  br label %70

20:                                               ; preds = %6
  %21 = load i64, ptr %10, align 8, !tbaa !8
  %22 = urem i64 %21, 16
  store i64 %22, ptr %14, align 8, !tbaa !8
  %23 = icmp eq i64 %22, 0
  br i1 %23, label %24, label %25

24:                                               ; preds = %20
  store i64 16, ptr %14, align 8, !tbaa !8
  br label %25

25:                                               ; preds = %24, %20
  %26 = load i64, ptr %14, align 8, !tbaa !8
  %27 = add i64 16, %26
  %28 = load i64, ptr %10, align 8, !tbaa !8
  %29 = sub i64 %28, %27
  store i64 %29, ptr %10, align 8, !tbaa !8
  %30 = load i64, ptr %10, align 8, !tbaa !8
  %31 = icmp ne i64 %30, 0
  br i1 %31, label %32, label %45

32:                                               ; preds = %25
  %33 = load ptr, ptr %13, align 8, !tbaa !10
  %34 = load ptr, ptr %8, align 8, !tbaa !3
  %35 = load ptr, ptr %9, align 8, !tbaa !3
  %36 = load i64, ptr %10, align 8, !tbaa !8
  %37 = load ptr, ptr %11, align 8, !tbaa !10
  %38 = load ptr, ptr %12, align 8, !tbaa !3
  call void %33(ptr noundef %34, ptr noundef %35, i64 noundef %36, ptr noundef %37, ptr noundef %38, i32 noundef 0)
  %39 = load i64, ptr %10, align 8, !tbaa !8
  %40 = load ptr, ptr %8, align 8, !tbaa !3
  %41 = getelementptr inbounds nuw i8, ptr %40, i64 %39
  store ptr %41, ptr %8, align 8, !tbaa !3
  %42 = load i64, ptr %10, align 8, !tbaa !8
  %43 = load ptr, ptr %9, align 8, !tbaa !3
  %44 = getelementptr inbounds nuw i8, ptr %43, i64 %42
  store ptr %44, ptr %9, align 8, !tbaa !3
  br label %45

45:                                               ; preds = %32, %25
  %46 = getelementptr inbounds [32 x i8], ptr %15, i64 0, i64 0
  call void @llvm.memset.p0.i64(ptr align 8 %46, i8 0, i64 32, i1 false)
  %47 = load ptr, ptr %13, align 8, !tbaa !10
  %48 = load ptr, ptr %8, align 8, !tbaa !3
  %49 = getelementptr inbounds [32 x i8], ptr %15, i64 0, i64 0
  %50 = load ptr, ptr %11, align 8, !tbaa !10
  %51 = getelementptr inbounds [32 x i8], ptr %15, i64 0, i64 0
  %52 = getelementptr inbounds i8, ptr %51, i64 16
  call void %47(ptr noundef %48, ptr noundef %49, i64 noundef 16, ptr noundef %50, ptr noundef %52, i32 noundef 0)
  %53 = getelementptr inbounds [32 x i8], ptr %15, i64 0, i64 0
  %54 = load ptr, ptr %8, align 8, !tbaa !3
  %55 = getelementptr inbounds i8, ptr %54, i64 16
  %56 = load i64, ptr %14, align 8, !tbaa !8
  call void @llvm.memcpy.p0.p0.i64(ptr align 8 %53, ptr align 1 %55, i64 %56, i1 false)
  %57 = load ptr, ptr %13, align 8, !tbaa !10
  %58 = getelementptr inbounds [32 x i8], ptr %15, i64 0, i64 0
  %59 = getelementptr inbounds [32 x i8], ptr %15, i64 0, i64 0
  %60 = load ptr, ptr %11, align 8, !tbaa !10
  %61 = load ptr, ptr %12, align 8, !tbaa !3
  call void %57(ptr noundef %58, ptr noundef %59, i64 noundef 32, ptr noundef %60, ptr noundef %61, i32 noundef 0)
  %62 = load ptr, ptr %9, align 8, !tbaa !3
  %63 = getelementptr inbounds [32 x i8], ptr %15, i64 0, i64 0
  %64 = load i64, ptr %14, align 8, !tbaa !8
  %65 = add i64 16, %64
  call void @llvm.memcpy.p0.p0.i64(ptr align 1 %62, ptr align 8 %63, i64 %65, i1 false)
  %66 = load i64, ptr %10, align 8, !tbaa !8
  %67 = add i64 16, %66
  %68 = load i64, ptr %14, align 8, !tbaa !8
  %69 = add i64 %67, %68
  store i64 %69, ptr %7, align 8
  store i32 1, ptr %16, align 4
  br label %70

70:                                               ; preds = %45, %19
  call void @llvm.lifetime.end.p0(i64 32, ptr %15) #5
  call void @llvm.lifetime.end.p0(i64 8, ptr %14) #5
  %71 = load i64, ptr %7, align 8
  ret i64 %71
}