; Function Attrs: nounwind uwtable
define range(i64 17, 1) i64 @CRYPTO_cts128_decrypt(ptr noundef %0, ptr noundef %1, i64 noundef %2, ptr noundef %3, ptr noundef %4, ptr noundef readonly captures(none) %5) local_unnamed_addr #0 {
  %7 = alloca %union.anon.3, align 8
  call void @llvm.lifetime.start.p0(i64 32, ptr nonnull %7) #5
  %8 = icmp ult i64 %2, 17
  br i1 %8, label %20, label %9

9:                                                ; preds = %6
  %10 = and i64 %2, 15
  %11 = icmp eq i64 %10, 0
  %spec.store.select = select i1 %11, i64 16, i64 %10
  %12 = add nuw nsw i64 %spec.store.select, 16
  %.not = icmp eq i64 %2, %12
  br i1 %.not, label %17, label %13

13:                                               ; preds = %9
  %14 = sub i64 %2, %12
  tail call void %5(ptr noundef %0, ptr noundef %1, i64 noundef %14, ptr noundef %3, ptr noundef %4, i32 noundef 0) #5
  %15 = getelementptr inbounds nuw i8, ptr %0, i64 %14
  %16 = getelementptr inbounds nuw i8, ptr %1, i64 %14
  br label %17

17:                                               ; preds = %13, %9
  %.028 = phi ptr [ %16, %13 ], [ %1, %9 ]
  %.027 = phi ptr [ %15, %13 ], [ %0, %9 ]
  call void @llvm.memset.p0.i64(ptr noundef nonnull align 8 dereferenceable(32) %7, i8 0, i64 32, i1 false)
  %18 = getelementptr inbounds nuw i8, ptr %7, i64 16
  call void %5(ptr noundef %.027, ptr noundef nonnull %7, i64 noundef 16, ptr noundef %3, ptr noundef nonnull %18, i32 noundef 0) #5
  %19 = getelementptr inbounds nuw i8, ptr %.027, i64 16
  call void @llvm.memcpy.p0.p0.i64(ptr noundef nonnull align 8 dereferenceable(1) %7, ptr noundef nonnull align 1 dereferenceable(1) %19, i64 %spec.store.select, i1 false)
  call void %5(ptr noundef nonnull %7, ptr noundef nonnull %7, i64 noundef 32, ptr noundef %3, ptr noundef %4, i32 noundef 0) #5
  call void @llvm.memcpy.p0.p0.i64(ptr noundef nonnull align 1 dereferenceable(1) %.028, ptr noundef nonnull align 8 dereferenceable(1) %7, i64 %12, i1 false)
  br label %20

20:                                               ; preds = %6, %17
  %.0 = phi i64 [ %2, %17 ], [ 0, %6 ]
  call void @llvm.lifetime.end.p0(i64 32, ptr nonnull %7) #5
  ret i64 %.0
}